target datalayout = "e-m:e-p270:32:32-p271:32:32-p272:64:64-i64:64-i128:128-f80:128-n8:16:32:64-S128"
target triple = "x86_64-pc-linux-gnu"

; Function Attrs: mustprogress nounwind uwtable
define internal noundef i32 @_ZL14VL_SHIFTRS_IIIiiijj(i32 noundef %0, i32 noundef %1, i32 noundef %2, i32 noundef %3, i32 noundef %4) #1 {
  %6 = alloca i32, align 4
  %7 = alloca i32, align 4
  %8 = alloca i32, align 4
  %9 = alloca i32, align 4
  %10 = alloca i32, align 4
  %11 = alloca i32, align 4
  %12 = alloca i32, align 4
  %13 = alloca i32, align 4
  store i32 %0, ptr %7, align 4
  store i32 %1, ptr %8, align 4
  store i32 %2, ptr %9, align 4
  store i32 %3, ptr %10, align 4
  store i32 %4, ptr %11, align 4
  %14 = load i32, ptr %10, align 4
  %15 = load i32, ptr %8, align 4
  %16 = sub nsw i32 %15, 1
  %17 = lshr i32 %14, %16
  %18 = sub i32 0, %17
  store i32 %18, ptr %12, align 4
  %19 = load i32, ptr %11, align 4
  %20 = icmp uge i32 %19, 32
  %21 = xor i1 %20, true
  %22 = xor i1 %21, true
  br i1 %22, label %23, label %37

23:                                               ; preds = %5
  %24 = load i32, ptr %12, align 4
  %25 = load i32, ptr %7, align 4
  %26 = and i32 %25, 31
  %27 = icmp ne i32 %26, 0
  br i1 %27, label %28, label %33

28:                                               ; preds = %23
  %29 = load i32, ptr %7, align 4
  %30 = and i32 %29, 31
  %31 = shl i32 1, %30
  %32 = sub i32 %31, 1
  br label %34

33:                                               ; preds = %23
  br label %34

34:                                               ; preds = %33, %28
  %35 = phi i32 [ %32, %28 ], [ -1, %33 ]
  %36 = and i32 %24, %35
  store i32 %36, ptr %6, align 4
  br label %71

37:                                               ; preds = %5
  %38 = load i32, ptr %8, align 4
  %39 = and i32 %38, 31
  %40 = icmp ne i32 %39, 0
  br i1 %40, label %41, label %46

41:                                               ; preds = %37
  %42 = load i32, ptr %8, align 4
  %43 = and i32 %42, 31
  %44 = shl i32 1, %43
  %45 = sub i32 %44, 1
  br label %47

46:                                               ; preds = %37
  br label %47

47:                                               ; preds = %46, %41
  %48 = phi i32 [ %45, %41 ], [ -1, %46 ]
  %49 = load i32, ptr %11, align 4
  %50 = lshr i32 %48, %49
  %51 = xor i32 %50, -1
  store i32 %51, ptr %13, align 4
  %52 = load i32, ptr %10, align 4
  %53 = load i32, ptr %11, align 4
  %54 = lshr i32 %52, %53
  %55 = load i32, ptr %12, align 4
  %56 = load i32, ptr %13, align 4
  %57 = load i32, ptr %7, align 4
  %58 = and i32 %57, 31
  %59 = icmp ne i32 %58, 0
  br i1 %59, label %60, label %65

60:                                               ; preds = %47
  %61 = load i32, ptr %7, align 4
  %62 = and i32 %61, 31
  %63 = shl i32 1, %62
  %64 = sub i32 %63, 1
  br label %66

65:                                               ; preds = %47
  br label %66

66:                                               ; preds = %65, %60
  %67 = phi i32 [ %64, %60 ], [ -1, %65 ]
  %68 = and i32 %56, %67
  %69 = and i32 %55, %68
  %70 = or i32 %54, %69
  store i32 %70, ptr %6, align 4
  br label %71

71:                                               ; preds = %66, %34
  %72 = load i32, ptr %6, align 4
  ret i32 %72
}